; Function Attrs: inlinehint mustprogress uwtable
define internal fastcc void @"_ZZN5vcpkg18serialize_manifestERKNS_17SourceControlFileEENK3$_4clERNS_4Json6ObjectENS_13StringLiteralERKNS_8OptionalINSt7__cxx1112basic_stringIcSt11char_traitsIcESaIcEEEEE"(ptr noundef nonnull align 8 dereferenceable(24) %0, ptr noundef nonnull align 8 dereferenceable(40) %1) unnamed_addr #6 align 2 personality ptr @__gxx_personality_v0 {
  %3 = alloca %"class.std::__cxx11::basic_string", align 8
  %4 = alloca %"struct.vcpkg::StringView", align 8
  %5 = alloca %"struct.vcpkg::Json::Value", align 8
  %6 = alloca %"struct.vcpkg::Json::Value", align 8
  %7 = load i8, ptr %1, align 8, !tbaa !107, !range !56, !noundef !57
  %8 = trunc nuw i8 %7 to i1
  %9 = getelementptr inbounds nuw i8, ptr %1, i64 8
  br i1 %8, label %10, label %36

10:                                               ; preds = %2
  %11 = getelementptr inbounds nuw i8, ptr %1, i64 16
  %12 = load i64, ptr %11, align 8, !tbaa !22
  %13 = icmp eq i64 %12, 0
  br i1 %13, label %14, label %19

14:                                               ; preds = %10
  call void @llvm.lifetime.start.p0(i64 8, ptr nonnull %5) #23
  call void @_ZN5vcpkg4Json5Value4nullEDn(ptr dead_on_unwind nonnull writable sret(%"struct.vcpkg::Json::Value") align 8 %5, ptr null) #23
  %15 = invoke noundef nonnull align 8 dereferenceable(8) ptr @_ZN5vcpkg4Json6Object6insertENS_10StringViewEONS0_5ValueE(ptr noundef nonnull align 8 dereferenceable(24) %0, ptr nonnull @.str.618, i64 7, ptr noundef nonnull align 8 dereferenceable(8) %5)
          to label %16 unwind label %17

16:                                               ; preds = %14
  call void @_ZN5vcpkg4Json5ValueD1Ev(ptr noundef nonnull align 8 dereferenceable(8) %5) #23
  call void @llvm.lifetime.end.p0(i64 8, ptr nonnull %5) #23
  br label %36

17:                                               ; preds = %14
  %18 = landingpad { ptr, i32 }
          cleanup
  call void @_ZN5vcpkg4Json5ValueD1Ev(ptr noundef nonnull align 8 dereferenceable(8) %5) #23
  call void @llvm.lifetime.end.p0(i64 8, ptr nonnull %5) #23
  br label %37

19:                                               ; preds = %10
  call void @llvm.lifetime.start.p0(i64 8, ptr nonnull %6) #23
  call void @llvm.lifetime.start.p0(i64 32, ptr nonnull %3) #23, !noalias !403
  call void @llvm.lifetime.start.p0(i64 16, ptr nonnull %4) #23, !noalias !403
  call void @_ZN5vcpkg10StringViewC1ERKNSt7__cxx1112basic_stringIcSt11char_traitsIcESaIcEEE(ptr noundef nonnull align 8 dereferenceable(16) %4, ptr noundef nonnull align 8 dereferenceable(32) %9) #23, !noalias !403
  invoke void @_ZNK5vcpkg10StringView9to_stringB5cxx11Ev(ptr dead_on_unwind nonnull writable sret(%"class.std::__cxx11::basic_string") align 8 %3, ptr noundef nonnull align 8 dereferenceable(16) %4)
          to label %20 unwind label %29, !noalias !403

20:                                               ; preds = %19
  call void @_ZN5vcpkg4Json5Value6stringEONSt7__cxx1112basic_stringIcSt11char_traitsIcESaIcEEE(ptr dead_on_unwind nonnull writable sret(%"struct.vcpkg::Json::Value") align 8 %6, ptr noundef nonnull align 8 dereferenceable(32) %3) #23
  %21 = load ptr, ptr %3, align 8, !tbaa !21, !noalias !403
  %22 = getelementptr inbounds nuw i8, ptr %3, i64 16
  %23 = icmp eq ptr %21, %22
  br i1 %23, label %_ZNKSt7__cxx1112basic_stringIcSt11char_traitsIcESaIcEE11_M_is_localEv.exit.thread.i.i.i, label %_ZNKSt7__cxx1112basic_stringIcSt11char_traitsIcESaIcEE11_M_is_localEv.exit.i.i.i

_ZNKSt7__cxx1112basic_stringIcSt11char_traitsIcESaIcEE11_M_is_localEv.exit.thread.i.i.i: ; preds = %20
  %24 = getelementptr inbounds nuw i8, ptr %3, i64 8
  %25 = load i64, ptr %24, align 8, !tbaa !22, !noalias !403
  %26 = icmp ult i64 %25, 16
  call void @llvm.assume(i1 %26)
  br label %_ZN5vcpkg4Json5Value6stringINSt7__cxx1112basic_stringIcSt11char_traitsIcESaIcEEETnNSt9enable_ifIXsr3stdE18is_constructible_vINS_10StringViewERKT_EEiE4typeELi0EEES1_SD_.exit

_ZNKSt7__cxx1112basic_stringIcSt11char_traitsIcESaIcEE11_M_is_localEv.exit.i.i.i: ; preds = %20
  %27 = load i64, ptr %22, align 8, !tbaa !19, !noalias !403
  %28 = add i64 %27, 1
  call void @_ZdlPvm(ptr noundef %21, i64 noundef %28) #25
  br label %_ZN5vcpkg4Json5Value6stringINSt7__cxx1112basic_stringIcSt11char_traitsIcESaIcEEETnNSt9enable_ifIXsr3stdE18is_constructible_vINS_10StringViewERKT_EEiE4typeELi0EEES1_SD_.exit

29:                                               ; preds = %19
  %30 = landingpad { ptr, i32 }
          catch ptr null
  %31 = extractvalue { ptr, i32 } %30, 0
  call void @__clang_call_terminate(ptr %31) #27, !noalias !403
  unreachable

_ZN5vcpkg4Json5Value6stringINSt7__cxx1112basic_stringIcSt11char_traitsIcESaIcEEETnNSt9enable_ifIXsr3stdE18is_constructible_vINS_10StringViewERKT_EEiE4typeELi0EEES1_SD_.exit: ; preds = %_ZNKSt7__cxx1112basic_stringIcSt11char_traitsIcESaIcEE11_M_is_localEv.exit.thread.i.i.i, %_ZNKSt7__cxx1112basic_stringIcSt11char_traitsIcESaIcEE11_M_is_localEv.exit.i.i.i
  call void @llvm.lifetime.end.p0(i64 16, ptr nonnull %4) #23, !noalias !403
  call void @llvm.lifetime.end.p0(i64 32, ptr nonnull %3) #23, !noalias !403
  %32 = invoke noundef nonnull align 8 dereferenceable(8) ptr @_ZN5vcpkg4Json6Object6insertENS_10StringViewEONS0_5ValueE(ptr noundef nonnull align 8 dereferenceable(24) %0, ptr nonnull @.str.618, i64 7, ptr noundef nonnull align 8 dereferenceable(8) %6)
          to label %33 unwind label %34

33:                                               ; preds = %_ZN5vcpkg4Json5Value6stringINSt7__cxx1112basic_stringIcSt11char_traitsIcESaIcEEETnNSt9enable_ifIXsr3stdE18is_constructible_vINS_10StringViewERKT_EEiE4typeELi0EEES1_SD_.exit
  call void @_ZN5vcpkg4Json5ValueD1Ev(ptr noundef nonnull align 8 dereferenceable(8) %6) #23
  call void @llvm.lifetime.end.p0(i64 8, ptr nonnull %6) #23
  br label %36

34:                                               ; preds = %_ZN5vcpkg4Json5Value6stringINSt7__cxx1112basic_stringIcSt11char_traitsIcESaIcEEETnNSt9enable_ifIXsr3stdE18is_constructible_vINS_10StringViewERKT_EEiE4typeELi0EEES1_SD_.exit
  %35 = landingpad { ptr, i32 }
          cleanup
  call void @_ZN5vcpkg4Json5ValueD1Ev(ptr noundef nonnull align 8 dereferenceable(8) %6) #23
  call void @llvm.lifetime.end.p0(i64 8, ptr nonnull %6) #23
  br label %37

36:                                               ; preds = %16, %33, %2
  ret void

37:                                               ; preds = %34, %17
  %.pn = phi { ptr, i32 } [ %18, %17 ], [ %35, %34 ]
  resume { ptr, i32 } %.pn
}